; Function Attrs: nofree norecurse nosync nounwind memory(readwrite, inaccessiblemem: none) uwtable
define internal noundef i32 @lut2_16_8_16(ptr noundef readonly captures(none) %0, ptr noundef readonly captures(none) %1, i32 noundef %2, i32 noundef %3) #6 {
  %5 = getelementptr inbounds nuw i8, ptr %0, i64 72
  %6 = load ptr, ptr %5, align 8, !tbaa !4
  %7 = load ptr, ptr %1, align 8, !tbaa !81
  %8 = getelementptr inbounds nuw i8, ptr %1, i64 8
  %9 = load ptr, ptr %8, align 8, !tbaa !83
  %10 = getelementptr inbounds nuw i8, ptr %1, i64 16
  %11 = load ptr, ptr %10, align 8, !tbaa !84
  %12 = getelementptr inbounds nuw i8, ptr %6, i64 360
  %13 = load i32, ptr %12, align 8, !tbaa !65
  %14 = icmp sgt i32 %13, 0
  br i1 %14, label %.lr.ph, label %._crit_edge

.lr.ph:                                           ; preds = %4
  %15 = getelementptr inbounds nuw i8, ptr %6, i64 104
  %16 = load i32, ptr %15, align 8, !tbaa !32
  %17 = getelementptr inbounds nuw i8, ptr %6, i64 304
  %18 = add nsw i32 %2, 1
  %19 = getelementptr inbounds nuw i8, ptr %6, i64 224
  %20 = getelementptr inbounds nuw i8, ptr %7, i64 64
  %21 = getelementptr inbounds nuw i8, ptr %9, i64 64
  %22 = getelementptr inbounds nuw i8, ptr %11, i64 64
  %23 = getelementptr inbounds nuw i8, ptr %6, i64 288
  %24 = getelementptr inbounds nuw i8, ptr %6, i64 368
  %notmask.i = shl nsw i32 -1, %16
  %25 = trunc i32 %notmask.i to i16
  %26 = xor i16 %25, -1
  %wide.trip.count77 = zext nneg i32 %13 to i64
  br label %27

27:                                               ; preds = %.lr.ph, %._crit_edge69
  %indvars.iv74 = phi i64 [ 0, %.lr.ph ], [ %indvars.iv.next75, %._crit_edge69 ]
  %28 = getelementptr inbounds nuw [4 x i32], ptr %17, i64 0, i64 %indvars.iv74
  %29 = load i32, ptr %28, align 4, !tbaa !54
  %30 = mul nsw i32 %29, %2
  %31 = sdiv i32 %30, %3
  %32 = mul nsw i32 %29, %18
  %33 = sdiv i32 %32, %3
  %34 = getelementptr inbounds nuw [4 x ptr], ptr %19, i64 0, i64 %indvars.iv74
  %35 = load ptr, ptr %34, align 8, !tbaa !93
  %36 = getelementptr inbounds nuw [8 x ptr], ptr %7, i64 0, i64 %indvars.iv74
  %37 = load ptr, ptr %36, align 8, !tbaa !96
  %38 = getelementptr inbounds nuw [8 x i32], ptr %20, i64 0, i64 %indvars.iv74
  %39 = load i32, ptr %38, align 4, !tbaa !54
  %40 = mul nsw i32 %39, %31
  %41 = sext i32 %40 to i64
  %42 = getelementptr inbounds i8, ptr %37, i64 %41
  %43 = getelementptr inbounds nuw [8 x ptr], ptr %9, i64 0, i64 %indvars.iv74
  %44 = load ptr, ptr %43, align 8, !tbaa !96
  %45 = getelementptr inbounds nuw [8 x i32], ptr %21, i64 0, i64 %indvars.iv74
  %46 = load i32, ptr %45, align 4, !tbaa !54
  %47 = mul nsw i32 %46, %31
  %48 = sext i32 %47 to i64
  %49 = getelementptr inbounds i8, ptr %44, i64 %48
  %50 = getelementptr inbounds nuw [8 x ptr], ptr %11, i64 0, i64 %indvars.iv74
  %51 = load ptr, ptr %50, align 8, !tbaa !96
  %52 = getelementptr inbounds nuw [8 x i32], ptr %22, i64 0, i64 %indvars.iv74
  %53 = load i32, ptr %52, align 4, !tbaa !54
  %54 = mul nsw i32 %53, %31
  %55 = sext i32 %54 to i64
  %56 = getelementptr inbounds i8, ptr %51, i64 %55
  %57 = icmp slt i32 %31, %33
  br i1 %57, label %.preheader.lr.ph, label %._crit_edge69

.preheader.lr.ph:                                 ; preds = %27
  %58 = getelementptr inbounds nuw [4 x i32], ptr %23, i64 0, i64 %indvars.iv74
  %59 = load i32, ptr %58, align 4, !tbaa !54
  %60 = icmp sgt i32 %59, 0
  %61 = sdiv i32 %39, 2
  %62 = sext i32 %61 to i64
  %63 = sext i32 %46 to i64
  %64 = sdiv i32 %53, 2
  %65 = sext i32 %64 to i64
  br i1 %60, label %.preheader.lr.ph.split.us, label %._crit_edge69

.preheader.lr.ph.split.us:                        ; preds = %.preheader.lr.ph
  %66 = load i32, ptr %24, align 8, !tbaa !60
  %wide.trip.count = zext nneg i32 %59 to i64
  br label %.preheader.us

.preheader.us:                                    ; preds = %._crit_edge.us, %.preheader.lr.ph.split.us
  %.068.us = phi ptr [ %42, %.preheader.lr.ph.split.us ], [ %83, %._crit_edge.us ]
  %.05967.us = phi ptr [ %56, %.preheader.lr.ph.split.us ], [ %85, %._crit_edge.us ]
  %.06066.us = phi ptr [ %49, %.preheader.lr.ph.split.us ], [ %84, %._crit_edge.us ]
  %.06265.us = phi i32 [ %31, %.preheader.lr.ph.split.us ], [ %86, %._crit_edge.us ]
  br label %67

67:                                               ; preds = %.preheader.us, %67
  %indvars.iv = phi i64 [ 0, %.preheader.us ], [ %indvars.iv.next, %67 ]
  %68 = getelementptr inbounds nuw i16, ptr %.05967.us, i64 %indvars.iv
  %69 = load i16, ptr %68, align 2, !tbaa !97
  %70 = zext i16 %69 to i32
  %71 = shl i32 %70, %66
  %72 = getelementptr inbounds nuw i8, ptr %.06066.us, i64 %indvars.iv
  %73 = load i8, ptr %72, align 1, !tbaa !105
  %74 = zext i8 %73 to i32
  %75 = or i32 %71, %74
  %76 = sext i32 %75 to i64
  %77 = getelementptr inbounds i16, ptr %35, i64 %76
  %78 = load i16, ptr %77, align 2, !tbaa !97
  %79 = zext i16 %78 to i32
  %80 = and i32 %notmask.i, %79
  %.not.i.us = icmp eq i32 %80, 0
  %81 = select i1 %.not.i.us, i16 %78, i16 %26
  %82 = getelementptr inbounds nuw i16, ptr %.068.us, i64 %indvars.iv
  store i16 %81, ptr %82, align 2, !tbaa !97
  %indvars.iv.next = add nuw nsw i64 %indvars.iv, 1
  %exitcond.not = icmp eq i64 %indvars.iv.next, %wide.trip.count
  br i1 %exitcond.not, label %._crit_edge.us, label %67, !llvm.loop !116

._crit_edge.us:                                   ; preds = %67
  %83 = getelementptr inbounds i16, ptr %.068.us, i64 %62
  %84 = getelementptr inbounds i8, ptr %.06066.us, i64 %63
  %85 = getelementptr inbounds i16, ptr %.05967.us, i64 %65
  %86 = add nsw i32 %.06265.us, 1
  %exitcond73.not = icmp eq i32 %86, %33
  br i1 %exitcond73.not, label %._crit_edge69, label %.preheader.us, !llvm.loop !117

._crit_edge69:                                    ; preds = %._crit_edge.us, %.preheader.lr.ph, %27
  %indvars.iv.next75 = add nuw nsw i64 %indvars.iv74, 1
  %exitcond78.not = icmp eq i64 %indvars.iv.next75, %wide.trip.count77
  br i1 %exitcond78.not, label %._crit_edge, label %27, !llvm.loop !118

._crit_edge:                                      ; preds = %._crit_edge69, %4
  ret i32 0
}